Certificate:
    Data:
        Version: 3 (0x2)
        Serial Number:
            cb:a8:61:f1:24:2a:43:24:61:f8:60:dd:b7:50:bf:4c
        Signature Algorithm: sha256WithRSAEncryption
        Issuer: CN=2044129
        Validity
            Not Before: Dec 12 16:41:33 2025 GMT
            Not After : Nov 26 16:41:33 2028 GMT
        Subject: CN=vpn_server
        Subject Public Key Info:
            Public Key Algorithm: rsaEncryption
                RSA Public-Key: (2048 bit)
                Modulus:
                    00:b2:f2:c1:42:10:2d:9b:06:53:4e:b5:69:3e:30:
                    14:ab:fe:4c:c1:48:78:c9:9c:51:44:9e:f3:bc:df:
                    53:28:ae:d9:3d:e7:90:19:c2:67:c3:5a:9a:7e:9f:
                    a9:d1:14:1e:39:34:d1:42:84:04:ab:9b:cb:1f:07:
                    e0:99:1e:d2:ca:0b:2b:71:69:fd:3d:af:01:28:fb:
                    39:75:a0:15:44:36:a4:89:d9:f6:d3:8d:e6:f2:98:
                    65:e1:43:fa:02:4c:42:c1:09:36:72:f8:54:2c:ba:
                    9e:9a:75:0f:63:c8:13:98:d8:b4:18:d7:22:a3:d2:
                    9e:43:cb:83:90:16:0a:6d:41:2c:4c:2e:bb:a5:ab:
                    e9:b0:e3:2d:e6:9d:91:c2:70:1d:4e:61:8d:cf:1d:
                    d9:f6:36:4c:fa:4b:34:f9:3b:8b:f9:53:0c:3e:d3:
                    f4:de:b8:43:51:ab:0f:73:5c:0c:f5:14:2a:13:ad:
                    86:f2:59:aa:d4:f1:32:4e:28:4e:7c:c1:f5:40:b0:
                    7a:de:a4:bd:b5:2f:ef:d9:bf:23:d2:8c:f3:0f:45:
                    ea:7f:48:c4:42:38:a7:98:63:ee:e9:68:8b:2e:d1:
                    5a:88:26:b3:20:b0:ee:78:bf:4a:40:68:65:0a:0e:
                    c6:2c:dd:f4:aa:bc:10:82:54:79:00:99:49:04:53:
                    17:5f
                Exponent: 65537 (0x10001)
        X509v3 extensions:
            X509v3 Basic Constraints: 
                CA:FALSE
            X509v3 Subject Key Identifier: 
                F6:D5:6B:FE:A4:99:57:FE:4C:C3:37:7B:48:5F:09:30:7A:24:81:E0
            X509v3 Authority Key Identifier: 
                keyid:7E:2E:64:ED:CD:77:21:05:6F:8A:82:89:E6:BA:9D:62:07:01:59:D8
                DirName:/CN=2044129
                serial:43:62:EC:C6:03:B2:EF:DC:3C:8F:82:F0:0B:82:EC:BA:64:83:60:E6

            X509v3 Extended Key Usage: 
                TLS Web Server Authentication
            X509v3 Key Usage: 
                Digital Signature, Key Encipherment
            X509v3 Subject Alternative Name: 
                DNS:vpn_server
    Signature Algorithm: sha256WithRSAEncryption
         56:c4:81:f3:39:35:a8:2e:ae:e0:04:28:95:91:32:1a:92:7c:
         4b:7b:31:71:98:1b:07:a9:5c:1c:c0:9f:b1:ab:e5:bc:48:a3:
         10:65:0d:6f:7c:4f:e6:37:be:c2:41:c2:65:81:94:cc:56:0d:
         9a:28:21:fc:74:0f:31:5c:c7:f7:77:f4:1f:20:b9:d1:50:c7:
         2f:a4:45:ab:e7:89:5f:cc:b8:67:38:21:c1:05:7a:3a:8e:be:
         6e:32:0c:81:93:6e:69:fe:05:90:7d:ec:52:13:50:9f:09:3f:
         30:4b:0e:e9:65:6b:fd:21:3e:dd:3f:ee:fc:9a:16:65:93:92:
         6d:df:ae:9f:13:6a:50:20:49:a4:c9:a4:b9:dc:4e:7a:69:e5:
         cd:d9:e3:ce:12:46:5c:de:eb:15:76:f8:7a:8b:92:21:d0:58:
         b7:14:a7:03:46:57:2f:be:83:61:e9:fa:bc:2a:81:25:6c:38:
         55:89:40:70:1c:b4:9e:2a:60:be:d8:c8:05:1b:c4:a6:12:03:
         83:c1:3f:b5:13:85:2b:87:bd:d3:ea:69:42:a6:3b:4f:b1:12:
         a6:59:b4:3d:c8:60:26:e8:56:f1:68:cc:5f:a7:b9:6d:f2:55:
         bc:99:97:ba:d6:67:be:67:1b:00:65:bf:dd:5c:bc:a1:d9:b8:
         98:6d:05:5b
-----BEGIN CERTIFICATE-----
MIIDaDCCAlCgAwIBAgIRAMuoYfEkKkMkYfhg3bdQv0wwDQYJKoZIhvcNAQELBQAw
EjEQMA4GA1UEAwwHMjA0NDEyOTAeFw0yNTEyMTIxNjQxMzNaFw0yODExMjYxNjQx
MzNaMBUxEzARBgNVBAMMCnZwbl9zZXJ2ZXIwggEiMA0GCSqGSIb3DQEBAQUAA4IB
DwAwggEKAoIBAQCy8sFCEC2bBlNOtWk+MBSr/kzBSHjJnFFEnvO831Mortk955AZ
wmfDWpp+n6nRFB45NNFChASrm8sfB+CZHtLKCytxaf09rwEo+zl1oBVENqSJ2fbT
jebymGXhQ/oCTELBCTZy+FQsup6adQ9jyBOY2LQY1yKj0p5Dy4OQFgptQSxMLrul
q+mw4y3mnZHCcB1OYY3PHdn2Nkz6SzT5O4v5Uww+0/TeuENRqw9zXAz1FCoTrYby
WarU8TJOKE58wfVAsHrepL21L+/ZvyPSjPMPRep/SMRCOKeYY+7paIsu0VqIJrMg
sO54v0pAaGUKDsYs3fSqvBCCVHkAmUkEUxdfAgMBAAGjgbUwgbIwCQYDVR0TBAIw
ADAdBgNVHQ4EFgQU9tVr/qSZV/5Mwzd7SF8JMHokgeAwTQYDVR0jBEYwRIAUfi5k
7c13IQVvioKJ5rqdYgcBWdihFqQUMBIxEDAOBgNVBAMMBzIwNDQxMjmCFENi7MYD
su/cPI+C8AuC7Lpkg2DmMBMGA1UdJQQMMAoGCCsGAQUFBwMBMAsGA1UdDwQEAwIF
oDAVBgNVHREEDjAMggp2cG5fc2VydmVyMA0GCSqGSIb3DQEBCwUAA4IBAQBWxIHz
OTWoLq7gBCiVkTIaknxLezFxmBsHqVwcwJ+xq+W8SKMQZQ1vfE/mN77CQcJlgZTM
Vg2aKCH8dA8xXMf3d/QfILnRUMcvpEWr54lfzLhnOCHBBXo6jr5uMgyBk25p/gWQ
fexSE1CfCT8wSw7pZWv9IT7dP+78mhZlk5Jt366fE2pQIEmkyaS53E56aeXN2ePO
EkZc3usVdvh6i5Ih0Fi3FKcDRlcvvoNh6fq8KoElbDhViUBwHLSeKmC+2MgFG8Sm
EgODwT+1E4Urh73T6mlCpjtPsRKmWbQ9yGAm6FbxaMxfp7lt8lW8mZe61me+ZxsA
Zb/dXLyh2biYbQVb
-----END CERTIFICATE-----
